ccopy_reg
_reconstructor
p0
(csklearn.decomposition.pca
PCA
p1
c__builtin__
object
p2
Ntp3
Rp4
(dp5
S'components_'
p6
cnumpy.core.multiarray
_reconstruct
p7
(cnumpy
ndarray
p8
(I0
tp9
S'b'
p10
tp11
Rp12
(I1
(I2
I4
tp13
cnumpy
dtype
p14
(S'f8'
p15
I0
I1
tp16
Rp17
(I3
S'<'
p18
NNNI-1
I-1
I0
tp19
bI00
S'sI@\n\r\r\xe0\xbf%;\x0f\x99\x9f\x98\xe0\xbfb\xe2\xc7\xde\x16\xcf\xde\xbf\xc0}S2\x12\xda\xdf\xbfy\xddE6-\x13\xc5?\xb4\xf7\xf6n\xbf\x06\xc5?\x8fLNn\x10F\xe0?\x8c\xb4\x13\xbc]\x87\xea\xbf'
p20
tp21
bsS'n_features_'
p22
I4
sS'svd_solver'
p23
S'auto'
p24
sS'noise_variance_'
p25
cnumpy.core.multiarray
scalar
p26
(g17
S'\xc0\xbb\xf2F\xa1\x82\xc8?'
p27
tp28
Rp29
sS'mean_'
p30
g7
(g8
(I0
tp31
g10
tp32
Rp33
(I1
(I4
tp34
g17
I00
S'\x8cj\xa3\x82\xc3\xc0\x88?\xcb\xb4>\x16\xf25??_%V\xb3\x9f\xf3\x89\xbf94%\xcf\xb1M\x8a?'
p35
tp36
bsS'iterated_power'
p37
g24
sS'n_samples_'
p38
I90150
sS'random_state'
p39
NsS'_sklearn_version'
p40
S'0.18.1'
p41
sS'whiten'
p42
I00
sS'tol'
p43
F0.0
sS'explained_variance_'
p44
g7
(g8
(I0
tp45
g10
tp46
Rp47
(I1
(I2
tp48
g17
I00
S'"\x14r\x84\xb4\xbd\x0e@3\xd3\x8f|TG\xe3?'
p49
tp50
bsS'n_components_'
p51
I2
sS'copy'
p52
I01
sS'explained_variance_ratio_'
p53
g7
(g8
(I0
tp54
g10
tp55
Rp56
(I1
(I2
tp57
g17
I00
S"'\xa2\xec\x19>\x85\xea?,_\xdeA\xbd\xa1\xc0?"
p58
tp59
bsS'n_components'
p60
I2
sb.